Certificate:
    Data:
        Version: 1 (0x0)
        Serial Number: 4097 (0x1001)
    Signature Algorithm: sha256WithRSAEncryption
        Issuer: C=ES, ST=Granada, O=SPSI, OU=utoridad Certificadora de SPSI, CN=SPSI Autoridad Certificadora Intermedia/emailAddress=plfuertes@correo.ugr.es
        Validity
            Not Before: Nov 26 10:00:00 2018 GMT
            Not After : Nov 26 10:00:00 2019 GMT
        Subject: C=ES, ST=Granada, L=Granada, O=SPSI, OU=utoridad Certificadora de SPSI, CN=Cliente/emailAddress=plfuertes@correo.ugr.es
        Subject Public Key Info:
            Public Key Algorithm: rsaEncryption
                Public-Key: (2048 bit)
                Modulus:
                    00:ac:75:97:f2:49:49:ad:32:c9:83:70:03:c9:f2:
                    e1:e3:86:21:78:9e:20:c0:d0:fe:be:5f:53:58:53:
                    d0:92:ba:7e:43:63:ca:62:74:74:57:fb:bd:a4:be:
                    99:c8:16:cf:7e:56:3c:48:52:dd:af:6e:eb:f4:f7:
                    c6:b1:42:e0:6c:6a:02:78:86:6e:d5:51:5d:c2:d6:
                    b6:24:e0:63:b8:fc:d5:ea:f2:07:f2:3c:5b:fb:46:
                    df:97:f3:ec:06:a7:5d:43:16:8c:01:44:73:5b:db:
                    e0:0b:89:b3:73:d6:8d:09:e2:29:3c:b1:a4:90:6c:
                    58:a6:51:9a:59:15:32:19:e2:10:6a:1e:78:6e:cd:
                    9f:2b:ca:b9:93:e4:f0:e0:1e:77:ef:11:2a:78:54:
                    28:04:98:5c:7f:57:c0:8a:43:f8:14:73:46:55:2f:
                    4e:3e:72:46:1c:ef:6b:e6:cc:c9:2f:9d:0a:f4:72:
                    a1:0c:f1:fa:11:7f:6d:d5:e5:d2:34:0b:9f:bc:63:
                    14:46:1a:46:bd:98:ad:dd:ed:b1:be:20:36:05:38:
                    5f:6d:74:1b:4f:7c:55:8d:54:5f:62:a0:87:82:d0:
                    a9:5c:f5:97:90:66:59:de:31:9f:7a:d5:66:62:63:
                    88:35:9b:df:3d:e6:5f:bf:59:51:24:e1:08:ae:f9:
                    85:9b
                Exponent: 65537 (0x10001)
    Signature Algorithm: sha256WithRSAEncryption
         70:f7:f3:97:2b:51:b7:10:64:39:2d:cc:57:8f:b8:79:27:55:
         66:a8:f4:1a:b9:c2:93:79:cf:7b:c8:b3:b6:79:c3:ba:75:d1:
         0a:e7:f6:52:93:80:b1:87:e7:2a:33:e8:d3:ef:12:18:67:6e:
         2c:b7:3b:d6:64:53:0c:27:6b:04:0c:ea:6c:ff:c0:f8:f0:e4:
         86:19:fc:9a:6a:f7:b5:e2:a9:e5:6a:d1:7c:bd:2f:e4:3e:17:
         bd:61:2b:b0:b1:6c:1d:d5:35:71:77:f2:ae:86:cc:ad:9d:63:
         20:34:2b:1e:f8:5d:68:45:b2:fc:7b:90:d1:81:3e:50:36:0f:
         94:9b:d1:bc:ca:ec:f8:6b:b5:84:67:fb:2d:cc:c3:19:5c:7c:
         7a:8c:d9:ab:27:3d:c5:ec:b5:63:16:b6:dd:1f:b7:88:c4:13:
         8e:8a:83:89:cc:a2:ea:c0:80:0b:f8:59:e4:06:9c:19:f2:6d:
         23:d3:38:c7:24:5c:27:c2:af:8d:f4:2a:f7:21:ea:4a:f6:92:
         8d:51:99:ae:1e:28:ac:e1:05:dd:0b:7c:18:a8:cf:58:b3:ac:
         3d:1b:ea:e9:86:85:60:31:63:fc:63:d3:62:2a:13:d5:49:30:
         3a:96:3b:d1:97:29:1a:42:84:b1:9e:fa:b4:66:da:dd:d9:3d:
         94:ac:55:10:9b:de:27:e6:43:9d:fb:85:e2:05:bb:c0:a5:67:
         33:8c:61:09:16:30:a9:b9:64:a2:6b:b1:c7:26:f0:16:06:56:
         37:0a:79:8a:88:03:f9:49:08:b2:81:dd:f7:ce:77:d2:1c:e4:
         47:2c:bb:de:68:dd:81:9a:d4:45:d3:45:17:48:16:55:38:00:
         f6:78:9f:92:c9:10:72:fc:55:ab:51:3e:07:34:97:61:ff:4d:
         7a:92:f6:f0:d2:38:b5:b0:d8:a8:f0:c4:53:87:7f:2e:7d:d8:
         bb:f0:77:c5:f0:fe:f5:1e:65:d7:7a:27:c3:be:4e:a6:82:6c:
         80:c4:af:78:4d:d0:2a:86:68:27:dc:e5:a5:8f:bc:9b:7e:6a:
         86:ea:54:15:40:31:e4:58:bc:a5:38:90:7d:f8:de:98:c3:7a:
         8d:d5:29:76:1b:2c:26:71:51:e8:93:ab:60:d7:4f:d9:fa:32:
         66:c2:23:22:0c:c6:61:8a:a4:98:ba:cf:75:d9:ca:80:65:11:
         67:7d:53:25:8b:ef:69:c4:b2:71:1e:f2:fe:77:83:7d:60:4a:
         c4:2a:cb:85:02:14:03:71:43:a3:76:1f:d7:e0:19:15:a4:1c:
         30:c9:0c:b4:45:a2:8a:d8:8c:3a:62:43:93:13:9c:91:63:c8:
         e1:0a:3e:9f:1b:de:8d:25
-----BEGIN CERTIFICATE-----
MIIEyzCCArMCAhABMA0GCSqGSIb3DQEBCwUAMIGxMQswCQYDVQQGEwJFUzEQMA4G
A1UECAwHR3JhbmFkYTENMAsGA1UECgwEU1BTSTEnMCUGA1UECwwedXRvcmlkYWQg
Q2VydGlmaWNhZG9yYSBkZSBTUFNJMTAwLgYDVQQDDCdTUFNJIEF1dG9yaWRhZCBD
ZXJ0aWZpY2Fkb3JhIEludGVybWVkaWExJjAkBgkqhkiG9w0BCQEWF3BsZnVlcnRl
c0Bjb3JyZW8udWdyLmVzMB4XDTE4MTEyNjEwMDAwMFoXDTE5MTEyNjEwMDAwMFow
gaMxCzAJBgNVBAYTAkVTMRAwDgYDVQQIDAdHcmFuYWRhMRAwDgYDVQQHDAdHcmFu
YWRhMQ0wCwYDVQQKDARTUFNJMScwJQYDVQQLDB51dG9yaWRhZCBDZXJ0aWZpY2Fk
b3JhIGRlIFNQU0kxEDAOBgNVBAMMB0NsaWVudGUxJjAkBgkqhkiG9w0BCQEWF3Bs
ZnVlcnRlc0Bjb3JyZW8udWdyLmVzMIIBIjANBgkqhkiG9w0BAQEFAAOCAQ8AMIIB
CgKCAQEArHWX8klJrTLJg3ADyfLh44YheJ4gwND+vl9TWFPQkrp+Q2PKYnR0V/u9
pL6ZyBbPflY8SFLdr27r9PfGsULgbGoCeIZu1VFdwta2JOBjuPzV6vIH8jxb+0bf
l/PsBqddQxaMAURzW9vgC4mzc9aNCeIpPLGkkGxYplGaWRUyGeIQah54bs2fK8q5
k+Tw4B537xEqeFQoBJhcf1fAikP4FHNGVS9OPnJGHO9r5szJL50K9HKhDPH6EX9t
1eXSNAufvGMURhpGvZit3e2xviA2BThfbXQbT3xVjVRfYqCHgtCpXPWXkGZZ3jGf
etVmYmOINZvfPeZfv1lRJOEIrvmFmwIDAQABMA0GCSqGSIb3DQEBCwUAA4ICAQBw
9/OXK1G3EGQ5LcxXj7h5J1VmqPQaucKTec97yLO2ecO6ddEK5/ZSk4Cxh+cqM+jT
7xIYZ24stzvWZFMMJ2sEDOps/8D48OSGGfyaave14qnlatF8vS/kPhe9YSuwsWwd
1TVxd/KuhsytnWMgNCse+F1oRbL8e5DRgT5QNg+Um9G8yuz4a7WEZ/stzMMZXHx6
jNmrJz3F7LVjFrbdH7eIxBOOioOJzKLqwIAL+FnkBpwZ8m0j0zjHJFwnwq+N9Cr3
IepK9pKNUZmuHiis4QXdC3wYqM9Ys6w9G+rphoVgMWP8Y9NiKhPVSTA6ljvRlyka
QoSxnvq0Ztrd2T2UrFUQm94n5kOd+4XiBbvApWczjGEJFjCpuWSia7HHJvAWBlY3
CnmKiAP5SQiygd33znfSHORHLLveaN2BmtRF00UXSBZVOAD2eJ+SyRBy/FWrUT4H
NJdh/016kvbw0ji1sNio8MRTh38ufdi78HfF8P71HmXXeifDvk6mgmyAxK94TdAq
hmgn3OWlj7ybfmqG6lQVQDHkWLylOJB9+N6Yw3qN1Sl2GywmcVHok6tg10/Z+jJm
wiMiDMZhiqSYus912cqAZRFnfVMli+9pxLJxHvL+d4N9YErEKsuFAhQDcUOjdh/X
4BkVpBwwyQy0RaKK2Iw6YkOTE5yRY8jhCj6fG96NJQ==
-----END CERTIFICATE-----
