Certificate:
    Data:
        Version: 1 (0x0)
        Serial Number: 4096 (0x1000)
    Signature Algorithm: sha256WithRSAEncryption
        Issuer: C=ES, ST=Granada, O=SPSI, OU=utoridad Certificadora de SPSI, CN=SPSI Autoridad Certificadora Intermedia/emailAddress=plfuertes@correo.ugr.es
        Validity
            Not Before: Nov 26 09:54:13 2018 GMT
            Not After : Nov 26 09:54:13 2019 GMT
        Subject: C=ES, ST=Granada, L=Granada, O=SPSI, OU=utoridad Certificadora de SPSI, CN=Cliente/emailAddress=plfuertes@correo.ugr.es
        Subject Public Key Info:
            Public Key Algorithm: rsaEncryption
                Public-Key: (2048 bit)
                Modulus:
                    00:ac:75:97:f2:49:49:ad:32:c9:83:70:03:c9:f2:
                    e1:e3:86:21:78:9e:20:c0:d0:fe:be:5f:53:58:53:
                    d0:92:ba:7e:43:63:ca:62:74:74:57:fb:bd:a4:be:
                    99:c8:16:cf:7e:56:3c:48:52:dd:af:6e:eb:f4:f7:
                    c6:b1:42:e0:6c:6a:02:78:86:6e:d5:51:5d:c2:d6:
                    b6:24:e0:63:b8:fc:d5:ea:f2:07:f2:3c:5b:fb:46:
                    df:97:f3:ec:06:a7:5d:43:16:8c:01:44:73:5b:db:
                    e0:0b:89:b3:73:d6:8d:09:e2:29:3c:b1:a4:90:6c:
                    58:a6:51:9a:59:15:32:19:e2:10:6a:1e:78:6e:cd:
                    9f:2b:ca:b9:93:e4:f0:e0:1e:77:ef:11:2a:78:54:
                    28:04:98:5c:7f:57:c0:8a:43:f8:14:73:46:55:2f:
                    4e:3e:72:46:1c:ef:6b:e6:cc:c9:2f:9d:0a:f4:72:
                    a1:0c:f1:fa:11:7f:6d:d5:e5:d2:34:0b:9f:bc:63:
                    14:46:1a:46:bd:98:ad:dd:ed:b1:be:20:36:05:38:
                    5f:6d:74:1b:4f:7c:55:8d:54:5f:62:a0:87:82:d0:
                    a9:5c:f5:97:90:66:59:de:31:9f:7a:d5:66:62:63:
                    88:35:9b:df:3d:e6:5f:bf:59:51:24:e1:08:ae:f9:
                    85:9b
                Exponent: 65537 (0x10001)
    Signature Algorithm: sha256WithRSAEncryption
         69:21:7f:71:09:d8:19:7d:00:d0:05:76:03:6b:78:3d:22:49:
         b7:e4:d9:b3:a0:40:99:4e:76:e1:2f:a2:ff:53:02:01:2d:54:
         6d:f7:35:fc:1a:47:76:57:0d:1e:0a:00:89:4f:6a:12:75:de:
         eb:5c:b8:de:b8:c1:d9:c6:61:b3:29:fa:95:d3:69:d8:73:7d:
         89:08:af:32:8c:1f:a9:03:e8:e5:c7:ae:76:24:31:87:84:58:
         fd:8a:c0:71:e6:05:61:1f:fd:ad:28:d5:18:2e:b9:7b:e6:d6:
         8a:e3:b0:cf:1a:d8:c1:bf:24:48:70:3d:f9:d8:7d:65:ba:c6:
         a7:66:32:2c:c1:4a:43:a9:9c:4d:30:a2:b7:1d:f4:d7:25:60:
         7e:67:99:1b:21:36:e9:c4:c7:21:1e:a7:00:03:50:42:3c:4f:
         30:e4:d2:b7:d6:27:56:29:a4:28:3e:08:fa:86:d7:f6:97:ef:
         3c:54:df:5e:0b:6f:a7:cc:61:72:d2:00:9d:a3:57:fe:d7:03:
         7f:eb:4e:3a:d6:59:b6:4d:43:84:7f:f7:e0:be:e5:5f:9b:c2:
         59:f2:53:e7:e6:60:35:5c:64:3a:a7:c2:8e:2f:76:2a:0d:87:
         bb:06:52:ea:b5:45:79:91:ba:0c:5c:b4:1f:c4:58:75:35:96:
         0b:8a:1f:11:47:01:74:19:8e:db:ca:3a:2a:fc:e8:13:1e:c5:
         21:83:96:0a:3e:17:f2:38:23:ec:ab:d4:e5:1c:49:55:b9:af:
         4b:94:74:24:44:de:4a:d0:ab:2b:48:7e:fe:d3:82:53:bb:72:
         b3:af:bd:8a:d1:f0:15:58:ce:11:05:9f:45:25:1d:85:40:ed:
         a8:fd:aa:1e:3c:6d:61:4f:2e:8d:cc:4e:42:a0:1c:a1:61:c4:
         04:56:4a:07:d0:f5:38:9c:2e:75:2b:4e:7d:3a:cd:e6:4d:dc:
         11:ff:07:ac:b1:b2:a4:4b:2a:f2:b0:49:8c:56:38:84:19:54:
         0b:2b:30:ac:56:c8:d6:ee:13:36:a3:e6:d1:e6:b3:bb:5a:6e:
         ae:a5:50:31:bf:57:55:05:20:98:64:86:ec:fb:92:91:f1:84:
         ea:fd:38:90:bf:c2:94:e8:f9:e7:99:24:9b:da:fa:19:d9:0f:
         5c:7c:2e:ed:5c:08:9c:20:e7:84:5c:5d:90:17:3d:6c:93:b4:
         7a:0f:7b:2d:74:31:25:ea:56:dc:be:56:27:04:24:91:a1:52:
         9b:43:17:ea:72:f4:81:6c:0c:8b:86:5b:8d:39:23:8b:5d:c6:
         87:f0:7e:9a:9c:18:d3:27:f9:4a:0c:84:00:17:16:74:7f:6f:
         81:15:b3:87:cb:0a:73:b6
-----BEGIN CERTIFICATE-----
MIIEyzCCArMCAhAAMA0GCSqGSIb3DQEBCwUAMIGxMQswCQYDVQQGEwJFUzEQMA4G
A1UECAwHR3JhbmFkYTENMAsGA1UECgwEU1BTSTEnMCUGA1UECwwedXRvcmlkYWQg
Q2VydGlmaWNhZG9yYSBkZSBTUFNJMTAwLgYDVQQDDCdTUFNJIEF1dG9yaWRhZCBD
ZXJ0aWZpY2Fkb3JhIEludGVybWVkaWExJjAkBgkqhkiG9w0BCQEWF3BsZnVlcnRl
c0Bjb3JyZW8udWdyLmVzMB4XDTE4MTEyNjA5NTQxM1oXDTE5MTEyNjA5NTQxM1ow
gaMxCzAJBgNVBAYTAkVTMRAwDgYDVQQIDAdHcmFuYWRhMRAwDgYDVQQHDAdHcmFu
YWRhMQ0wCwYDVQQKDARTUFNJMScwJQYDVQQLDB51dG9yaWRhZCBDZXJ0aWZpY2Fk
b3JhIGRlIFNQU0kxEDAOBgNVBAMMB0NsaWVudGUxJjAkBgkqhkiG9w0BCQEWF3Bs
ZnVlcnRlc0Bjb3JyZW8udWdyLmVzMIIBIjANBgkqhkiG9w0BAQEFAAOCAQ8AMIIB
CgKCAQEArHWX8klJrTLJg3ADyfLh44YheJ4gwND+vl9TWFPQkrp+Q2PKYnR0V/u9
pL6ZyBbPflY8SFLdr27r9PfGsULgbGoCeIZu1VFdwta2JOBjuPzV6vIH8jxb+0bf
l/PsBqddQxaMAURzW9vgC4mzc9aNCeIpPLGkkGxYplGaWRUyGeIQah54bs2fK8q5
k+Tw4B537xEqeFQoBJhcf1fAikP4FHNGVS9OPnJGHO9r5szJL50K9HKhDPH6EX9t
1eXSNAufvGMURhpGvZit3e2xviA2BThfbXQbT3xVjVRfYqCHgtCpXPWXkGZZ3jGf
etVmYmOINZvfPeZfv1lRJOEIrvmFmwIDAQABMA0GCSqGSIb3DQEBCwUAA4ICAQBp
IX9xCdgZfQDQBXYDa3g9Ikm35NmzoECZTnbhL6L/UwIBLVRt9zX8Gkd2Vw0eCgCJ
T2oSdd7rXLjeuMHZxmGzKfqV02nYc32JCK8yjB+pA+jlx652JDGHhFj9isBx5gVh
H/2tKNUYLrl75taK47DPGtjBvyRIcD352H1lusanZjIswUpDqZxNMKK3HfTXJWB+
Z5kbITbpxMchHqcAA1BCPE8w5NK31idWKaQoPgj6htf2l+88VN9eC2+nzGFy0gCd
o1f+1wN/60461lm2TUOEf/fgvuVfm8JZ8lPn5mA1XGQ6p8KOL3YqDYe7BlLqtUV5
kboMXLQfxFh1NZYLih8RRwF0GY7byjoq/OgTHsUhg5YKPhfyOCPsq9TlHElVua9L
lHQkRN5K0KsrSH7+04JTu3Kzr72K0fAVWM4RBZ9FJR2FQO2o/aoePG1hTy6NzE5C
oByhYcQEVkoH0PU4nC51K059Os3mTdwR/wessbKkSyrysEmMVjiEGVQLKzCsVsjW
7hM2o+bR5rO7Wm6upVAxv1dVBSCYZIbs+5KR8YTq/TiQv8KU6PnnmSSb2voZ2Q9c
fC7tXAicIOeEXF2QFz1sk7R6D3stdDEl6lbcvlYnBCSRoVKbQxfqcvSBbAyLhluN
OSOLXcaH8H6anBjTJ/lKDIQAFxZ0f2+BFbOHywpztg==
-----END CERTIFICATE-----
