Certificate:
    Data:
        Version: 1 (0x0)
        Serial Number: 4098 (0x1002)
    Signature Algorithm: sha256WithRSAEncryption
        Issuer: C=ES, ST=Granada, O=SPSI, OU=utoridad Certificadora de SPSI, CN=SPSI Autoridad Certificadora Intermedia/emailAddress=plfuertes@correo.ugr.es
        Validity
            Not Before: Nov 27 13:08:33 2018 GMT
            Not After : Nov 27 13:08:33 2019 GMT
        Subject: C=ES, ST=Granada, L=Granada, O=SPSI, OU=utoridad Certificadora de SPSI, CN=Cliente con clave DSA/emailAddress=plfuertes@correo.ugr.es
        Subject Public Key Info:
            Public Key Algorithm: dsaEncryption
                pub: 
                    60:74:fd:a1:0f:64:03:1a:3b:47:cb:11:e7:e9:10:
                    97:4c:28:e6:ae:b9:d2:df:34:4b:57:bb:73:1f:2c:
                    cf:99:23:72:b7:32:1d:2e:89:c8:df:21:4a:7c:62:
                    48:6a:6e:a0:e2:c5:03:35:f8:a6:dc:d2:55:6d:3d:
                    3f:93:f8:62:16:0b:3f:16:b4:bb:ec:fb:c6:61:eb:
                    34:b9:ad:ca:a8:78:0f:16:81:03:81:fb:00:71:fb:
                    9f:e8:bd:b3:f6:b0:c8:92:c5:d0:4a:1b:0e:e3:a3:
                    06:4a:72:e2:9d:a3:1c:0c:82:91:2a:b2:f9:07:6a:
                    ec:f6:12:ea:18:ea:73:a8:b6:d2:61:60:07:56:4b:
                    b4:0c:21:37:52:ab:ae:2c:68:b8:f1:4a:a1:5b:5b:
                    05:aa:e9:ac:14:7d:da:b2:6a:b3:80:58:2a:89:93:
                    6a:11:b4:11:af:a7:d3:e8:3d:25:87:3b:d7:23:a3:
                    8c:19:3d:97:bb:6b:b4:8b:82:8b:b7:6b:dc:a2:e4:
                    d5:d3:84:61:13:4e:7f:69:c4:da:c8:bf:87:ad:02:
                    44:cd:d7:5a:d8:8b:f3:ae:6d:7c:ea:f6:54:02:c3:
                    50:1d:d2:aa:43:e0:f8:c4:bf:e7:66:d4:08:9f:70:
                    9d:81:03:ca:b1:21:6c:c5:9b:91:10:82:df:9e:a6:
                    99
                P:   
                    00:c4:8d:a2:0f:3c:76:0b:a9:ca:e2:5e:2d:d5:48:
                    b2:af:49:ec:fa:0a:c2:68:6d:d1:28:69:89:23:31:
                    b4:fb:2c:ac:23:cc:10:c9:b4:f5:a3:e5:a3:50:bd:
                    ec:8c:8e:b2:a5:ba:d9:b9:6d:15:f8:ce:f7:c2:3a:
                    de:1c:d2:7a:76:b4:f7:3d:2d:21:78:7d:c3:af:bc:
                    57:b1:92:52:2b:c0:b5:54:9e:09:0c:9f:65:74:d0:
                    35:1a:d5:19:4d:87:76:5a:39:a4:1c:5c:52:ee:c0:
                    55:81:4f:7c:23:c1:dd:d7:5f:ea:6d:06:39:4c:ec:
                    a7:0a:0b:0e:34:a6:73:bb:c7:8d:ef:90:bd:80:1e:
                    4e:36:6b:a4:7d:44:1d:ed:6d:85:ca:cb:64:7b:fe:
                    25:d3:e0:4a:93:4e:79:f5:0e:b9:61:e3:bf:76:7c:
                    64:9b:33:d4:d0:21:9e:df:7d:b5:3c:77:d3:77:2f:
                    af:15:60:e1:8f:27:0b:c3:99:3e:2f:14:00:36:88:
                    df:7c:45:9a:ba:65:11:93:06:c9:dd:41:31:a2:bd:
                    9b:10:c7:43:e6:8c:b8:39:b0:e4:a1:9c:6d:8c:88:
                    61:8e:bb:57:ea:c4:36:51:16:c7:4d:f6:35:a6:4b:
                    00:ae:8e:36:64:96:73:fb:a1:51:33:df:2f:a0:57:
                    a4:57
                Q:   
                    00:e9:ba:59:ca:20:cc:a3:4f:28:19:6a:af:cf:1c:
                    12:d4:60:83:4a:8d:6e:4b:24:8e:d9:b2:a6:48:0b:
                    1f:b3:79
                G:   
                    00:a6:65:f5:18:c8:94:3e:03:33:c9:1c:b3:3b:0c:
                    79:e6:21:00:62:2e:f5:0e:f0:d0:07:7b:5f:67:19:
                    ff:5f:41:8c:16:c7:b7:d0:9c:38:2c:e7:b6:6a:a9:
                    e3:3f:79:26:4b:d8:86:8f:42:e9:4a:ab:b6:b7:0e:
                    13:6c:04:8e:4d:23:35:c1:ca:68:06:9b:30:31:00:
                    52:4f:be:cd:db:6a:6a:98:6c:fd:95:44:38:63:0f:
                    86:34:ae:35:b5:a1:b0:03:e9:4a:51:c4:9b:26:b4:
                    cf:31:15:04:31:8b:25:b6:7e:23:72:53:07:13:b0:
                    d5:c9:59:ec:84:6c:a9:a2:86:47:ac:82:4c:0c:82:
                    24:4f:0f:a7:15:32:84:26:bd:e1:fc:1a:69:75:07:
                    dc:50:84:cc:9f:32:a9:54:6b:9e:79:b3:02:eb:a4:
                    a3:6b:84:21:c5:92:12:ff:62:0b:2c:be:e5:5d:dc:
                    7c:33:30:a2:0f:8d:b7:9b:b9:e4:77:7e:de:a8:e9:
                    b0:ab:38:19:5b:30:2f:3f:7f:cf:49:f8:dc:9d:d5:
                    b0:83:5b:da:59:66:c8:fe:5a:f0:5a:4b:e0:89:83:
                    97:3f:22:1c:9e:e0:c6:94:06:a2:95:13:d2:4c:a3:
                    d1:c9:bc:07:89:26:43:2f:4f:2c:55:e7:16:e1:88:
                    24:42
    Signature Algorithm: sha256WithRSAEncryption
         82:17:d0:9d:32:ba:f8:4f:46:b6:91:f5:0f:23:05:3e:55:a5:
         56:a2:7d:3e:fe:ac:82:53:35:f7:65:35:0e:0d:3e:13:6b:e1:
         76:b9:13:5d:29:2d:b3:71:7e:82:cb:2d:0c:b9:28:02:2f:ed:
         55:8c:f5:f7:3e:af:a0:ac:10:e1:54:90:e9:07:45:88:8f:88:
         3a:b0:f4:97:b4:64:71:58:31:d2:db:8d:0b:98:bf:e6:fb:38:
         e2:61:9f:e1:a5:48:22:8f:c2:98:6a:3a:d6:b1:2a:53:62:48:
         76:3f:e9:09:fd:be:1d:17:bd:40:ca:50:7c:5a:e1:9f:f6:0e:
         c5:fe:cf:44:87:47:4e:4c:58:55:e4:31:e9:be:5c:a0:81:b1:
         44:8b:0f:18:e6:37:bb:24:83:e8:1c:12:88:9b:01:bc:4b:af:
         ae:40:19:b7:81:4a:ee:7d:76:53:ed:5b:4f:20:87:ef:cd:da:
         e3:a6:0e:1c:20:f4:55:ac:bd:9d:62:de:5b:35:4a:4e:31:b0:
         7d:e7:1c:41:91:e3:48:d0:f8:dd:15:61:6c:dd:27:d5:e5:1e:
         0a:9c:68:c2:f0:9b:af:9a:cc:62:52:52:a8:fe:aa:23:87:58:
         5d:c4:42:ed:4e:33:41:19:ee:13:00:cb:9b:c1:8f:97:79:e4:
         19:35:78:85:69:14:c1:ed:70:67:b4:7e:26:f4:7e:5e:5e:28:
         64:87:50:78:38:90:9a:14:f6:48:a4:60:e0:84:75:8b:99:f1:
         22:3a:c2:31:7a:27:0f:cb:88:a8:c5:e4:9a:5c:66:14:96:24:
         b4:55:be:16:d1:3a:40:10:7a:0d:25:70:33:e5:9a:d4:8d:ff:
         4c:16:11:3e:a4:07:40:a0:87:18:9e:df:40:4e:5e:b4:d2:8e:
         09:db:5d:40:57:e7:f3:44:b8:28:df:ea:5b:fa:da:68:a4:6f:
         52:96:49:e9:16:16:7d:e1:2d:75:94:53:b2:4f:ec:95:4d:2c:
         0b:e1:33:ce:4d:87:d8:64:c3:a7:48:ef:ab:10:5c:9b:83:9e:
         2e:cb:b4:06:25:4c:b5:19:9b:a0:4a:25:49:12:cd:d6:8b:34:
         8b:42:fa:9c:fd:2e:f1:ae:d5:a0:47:d5:49:a2:35:4b:ad:65:
         cf:73:8d:3d:9c:d4:e3:bb:12:b2:cf:3c:97:d8:ac:86:bd:30:
         2d:53:15:14:64:b4:c5:fc:33:ec:45:d5:cd:6a:5d:c4:26:45:
         69:c1:c8:a6:9b:df:58:a7:e5:85:a1:61:69:e4:50:e8:5a:00:
         b2:d8:46:57:72:fa:79:60:c0:76:55:66:06:17:fd:49:31:a2:
         c1:7f:42:e4:8d:01:e5:43
-----BEGIN CERTIFICATE-----
MIIG/jCCBOYCAhACMA0GCSqGSIb3DQEBCwUAMIGxMQswCQYDVQQGEwJFUzEQMA4G
A1UECAwHR3JhbmFkYTENMAsGA1UECgwEU1BTSTEnMCUGA1UECwwedXRvcmlkYWQg
Q2VydGlmaWNhZG9yYSBkZSBTUFNJMTAwLgYDVQQDDCdTUFNJIEF1dG9yaWRhZCBD
ZXJ0aWZpY2Fkb3JhIEludGVybWVkaWExJjAkBgkqhkiG9w0BCQEWF3BsZnVlcnRl
c0Bjb3JyZW8udWdyLmVzMB4XDTE4MTEyNzEzMDgzM1oXDTE5MTEyNzEzMDgzM1ow
gbExCzAJBgNVBAYTAkVTMRAwDgYDVQQIDAdHcmFuYWRhMRAwDgYDVQQHDAdHcmFu
YWRhMQ0wCwYDVQQKDARTUFNJMScwJQYDVQQLDB51dG9yaWRhZCBDZXJ0aWZpY2Fk
b3JhIGRlIFNQU0kxHjAcBgNVBAMMFUNsaWVudGUgY29uIGNsYXZlIERTQTEmMCQG
CSqGSIb3DQEJARYXcGxmdWVydGVzQGNvcnJlby51Z3IuZXMwggNHMIICOgYHKoZI
zjgEATCCAi0CggEBAMSNog88dgupyuJeLdVIsq9J7PoKwmht0ShpiSMxtPssrCPM
EMm09aPlo1C97IyOsqW62bltFfjO98I63hzSena09z0tIXh9w6+8V7GSUivAtVSe
CQyfZXTQNRrVGU2Hdlo5pBxcUu7AVYFPfCPB3ddf6m0GOUzspwoLDjSmc7vHje+Q
vYAeTjZrpH1EHe1thcrLZHv+JdPgSpNOefUOuWHjv3Z8ZJsz1NAhnt99tTx303cv
rxVg4Y8nC8OZPi8UADaI33xFmrplEZMGyd1BMaK9mxDHQ+aMuDmw5KGcbYyIYY67
V+rENlEWx032NaZLAK6ONmSWc/uhUTPfL6BXpFcCIQDpulnKIMyjTygZaq/PHBLU
YINKjW5LJI7ZsqZICx+zeQKCAQEApmX1GMiUPgMzyRyzOwx55iEAYi71DvDQB3tf
Zxn/X0GMFse30Jw4LOe2aqnjP3kmS9iGj0LpSqu2tw4TbASOTSM1wcpoBpswMQBS
T77N22pqmGz9lUQ4Yw+GNK41taGwA+lKUcSbJrTPMRUEMYsltn4jclMHE7DVyVns
hGypooZHrIJMDIIkTw+nFTKEJr3h/BppdQfcUITMnzKpVGueebMC66Sja4QhxZIS
/2ILLL7lXdx8MzCiD423m7nkd37eqOmwqzgZWzAvP3/PSfjcndWwg1vaWWbI/lrw
WkvgiYOXPyIcnuDGlAailRPSTKPRybwHiSZDL08sVecW4YgkQgOCAQUAAoIBAGB0
/aEPZAMaO0fLEefpEJdMKOauudLfNEtXu3MfLM+ZI3K3Mh0uicjfIUp8YkhqbqDi
xQM1+Kbc0lVtPT+T+GIWCz8WtLvs+8Zh6zS5rcqoeA8WgQOB+wBx+5/ovbP2sMiS
xdBKGw7jowZKcuKdoxwMgpEqsvkHauz2EuoY6nOottJhYAdWS7QMITdSq64saLjx
SqFbWwWq6awUfdqyarOAWCqJk2oRtBGvp9PoPSWHO9cjo4wZPZe7a7SLgou3a9yi
5NXThGETTn9pxNrIv4etAkTN11rYi/OubXzq9lQCw1Ad0qpD4PjEv+dm1AifcJ2B
A8qxIWzFm5EQgt+eppkwDQYJKoZIhvcNAQELBQADggIBAIIX0J0yuvhPRraR9Q8j
BT5VpVaifT7+rIJTNfdlNQ4NPhNr4Xa5E10pLbNxfoLLLQy5KAIv7VWM9fc+r6Cs
EOFUkOkHRYiPiDqw9Je0ZHFYMdLbjQuYv+b7OOJhn+GlSCKPwphqOtaxKlNiSHY/
6Qn9vh0XvUDKUHxa4Z/2DsX+z0SHR05MWFXkMem+XKCBsUSLDxjmN7skg+gcEoib
AbxLr65AGbeBSu59dlPtW08gh+/N2uOmDhwg9FWsvZ1i3ls1Sk4xsH3nHEGR40jQ
+N0VYWzdJ9XlHgqcaMLwm6+azGJSUqj+qiOHWF3EQu1OM0EZ7hMAy5vBj5d55Bk1
eIVpFMHtcGe0fib0fl5eKGSHUHg4kJoU9kikYOCEdYuZ8SI6wjF6Jw/LiKjF5Jpc
ZhSWJLRVvhbROkAQeg0lcDPlmtSN/0wWET6kB0Cghxie30BOXrTSjgnbXUBX5/NE
uCjf6lv62mikb1KWSekWFn3hLXWUU7JP7JVNLAvhM85Nh9hkw6dI76sQXJuDni7L
tAYlTLUZm6BKJUkSzdaLNItC+pz9LvGu1aBH1UmiNUutZc9zjT2c1OO7ErLPPJfY
rIa9MC1TFRRktMX8M+xF1c1qXcQmRWnByKab31in5YWhYWnkUOhaALLYRldy+nlg
wHZVZgYX/UkxosF/QuSNAeVD
-----END CERTIFICATE-----
